; ModuleID = '35/437.c'
source_filename = "35/437.c"
target datalayout = "e-m:e-p270:32:32-p271:32:32-p272:64:64-i64:64-f80:128-n8:16:32:64-S128"
target triple = "x86_64-pc-linux-gnu"

@.str = private unnamed_addr constant [7 x i8] c"%d,%d\0A\00", align 1
@.str.1 = private unnamed_addr constant [3 x i8] c"%d\00", align 1
@.str.2 = private unnamed_addr constant [6 x i8] c"%d+%d\00", align 1
@.str.3 = private unnamed_addr constant [3 x i8] c"No\00", align 1

; Function Attrs: noinline nounwind uwtable
define dso_local i32 @main(i32 %0, i8** %1) #0 {
  %3 = alloca i32, align 4
  %4 = alloca i32, align 4
  %5 = alloca i8**, align 8
  %6 = alloca [8 x [8 x i32]], align 16
  %7 = alloca i32, align 4
  %8 = alloca i32, align 4
  %9 = alloca i32, align 4
  %10 = alloca i32, align 4
  %11 = alloca i32, align 4
  %12 = alloca i32, align 4
  %13 = alloca i32, align 4
  %14 = alloca i32, align 4
  store i32 0, i32* %3, align 4
  store i32 %0, i32* %4, align 4
  store i8** %1, i8*** %5, align 8
  %15 = call i32 (i8*, ...) @__isoc99_scanf(i8* getelementptr inbounds ([7 x i8], [7 x i8]* @.str, i64 0, i64 0), i32* %9, i32* %10)
  store i32 0, i32* %7, align 4
  br label %16

16:                                               ; preds = %37, %2
  %17 = load i32, i32* %7, align 4
  %18 = load i32, i32* %9, align 4
  %19 = icmp slt i32 %17, %18
  br i1 %19, label %20, label %40

20:                                               ; preds = %16
  store i32 0, i32* %8, align 4
  br label %21

21:                                               ; preds = %33, %20
  %22 = load i32, i32* %8, align 4
  %23 = load i32, i32* %10, align 4
  %24 = icmp slt i32 %22, %23
  br i1 %24, label %25, label %36

25:                                               ; preds = %21
  %26 = load i32, i32* %7, align 4
  %27 = sext i32 %26 to i64
  %28 = getelementptr inbounds [8 x [8 x i32]], [8 x [8 x i32]]* %6, i64 0, i64 %27
  %29 = load i32, i32* %8, align 4
  %30 = sext i32 %29 to i64
  %31 = getelementptr inbounds [8 x i32], [8 x i32]* %28, i64 0, i64 %30
  %32 = call i32 (i8*, ...) @__isoc99_scanf(i8* getelementptr inbounds ([3 x i8], [3 x i8]* @.str.1, i64 0, i64 0), i32* %31)
  br label %33

33:                                               ; preds = %25
  %34 = load i32, i32* %8, align 4
  %35 = add nsw i32 %34, 1
  store i32 %35, i32* %8, align 4
  br label %21

36:                                               ; preds = %21
  br label %37

37:                                               ; preds = %36
  %38 = load i32, i32* %7, align 4
  %39 = add nsw i32 %38, 1
  store i32 %39, i32* %7, align 4
  br label %16

40:                                               ; preds = %16
  store i32 0, i32* %14, align 4
  store i32 0, i32* %7, align 4
  br label %41

41:                                               ; preds = %110, %40
  %42 = load i32, i32* %7, align 4
  %43 = load i32, i32* %9, align 4
  %44 = icmp slt i32 %42, %43
  br i1 %44, label %45, label %113

45:                                               ; preds = %41
  %46 = load i32, i32* %7, align 4
  store i32 %46, i32* %11, align 4
  store i32 0, i32* %12, align 4
  store i32 0, i32* %8, align 4
  br label %47

47:                                               ; preds = %73, %45
  %48 = load i32, i32* %8, align 4
  %49 = load i32, i32* %10, align 4
  %50 = sub nsw i32 %49, 1
  %51 = icmp slt i32 %48, %50
  br i1 %51, label %52, label %76

52:                                               ; preds = %47
  %53 = load i32, i32* %11, align 4
  %54 = sext i32 %53 to i64
  %55 = getelementptr inbounds [8 x [8 x i32]], [8 x [8 x i32]]* %6, i64 0, i64 %54
  %56 = load i32, i32* %12, align 4
  %57 = sext i32 %56 to i64
  %58 = getelementptr inbounds [8 x i32], [8 x i32]* %55, i64 0, i64 %57
  %59 = load i32, i32* %58, align 4
  %60 = load i32, i32* %7, align 4
  %61 = sext i32 %60 to i64
  %62 = getelementptr inbounds [8 x [8 x i32]], [8 x [8 x i32]]* %6, i64 0, i64 %61
  %63 = load i32, i32* %8, align 4
  %64 = add nsw i32 %63, 1
  %65 = sext i32 %64 to i64
  %66 = getelementptr inbounds [8 x i32], [8 x i32]* %62, i64 0, i64 %65
  %67 = load i32, i32* %66, align 4
  %68 = icmp slt i32 %59, %67
  br i1 %68, label %69, label %72

69:                                               ; preds = %52
  %70 = load i32, i32* %8, align 4
  %71 = add nsw i32 %70, 1
  store i32 %71, i32* %12, align 4
  br label %72

72:                                               ; preds = %69, %52
  br label %73

73:                                               ; preds = %72
  %74 = load i32, i32* %8, align 4
  %75 = add nsw i32 %74, 1
  store i32 %75, i32* %8, align 4
  br label %47

76:                                               ; preds = %47
  store i32 0, i32* %14, align 4
  store i32 0, i32* %13, align 4
  br label %77

77:                                               ; preds = %101, %76
  %78 = load i32, i32* %13, align 4
  %79 = load i32, i32* %9, align 4
  %80 = icmp slt i32 %78, %79
  br i1 %80, label %81, label %104

81:                                               ; preds = %77
  %82 = load i32, i32* %11, align 4
  %83 = sext i32 %82 to i64
  %84 = getelementptr inbounds [8 x [8 x i32]], [8 x [8 x i32]]* %6, i64 0, i64 %83
  %85 = load i32, i32* %12, align 4
  %86 = sext i32 %85 to i64
  %87 = getelementptr inbounds [8 x i32], [8 x i32]* %84, i64 0, i64 %86
  %88 = load i32, i32* %87, align 4
  %89 = load i32, i32* %13, align 4
  %90 = sext i32 %89 to i64
  %91 = getelementptr inbounds [8 x [8 x i32]], [8 x [8 x i32]]* %6, i64 0, i64 %90
  %92 = load i32, i32* %12, align 4
  %93 = sext i32 %92 to i64
  %94 = getelementptr inbounds [8 x i32], [8 x i32]* %91, i64 0, i64 %93
  %95 = load i32, i32* %94, align 4
  %96 = icmp sle i32 %88, %95
  br i1 %96, label %97, label %100

97:                                               ; preds = %81
  %98 = load i32, i32* %14, align 4
  %99 = add nsw i32 %98, 1
  store i32 %99, i32* %14, align 4
  br label %100

100:                                              ; preds = %97, %81
  br label %101

101:                                              ; preds = %100
  %102 = load i32, i32* %13, align 4
  %103 = add nsw i32 %102, 1
  store i32 %103, i32* %13, align 4
  br label %77

104:                                              ; preds = %77
  %105 = load i32, i32* %14, align 4
  %106 = load i32, i32* %9, align 4
  %107 = icmp eq i32 %105, %106
  br i1 %107, label %108, label %109

108:                                              ; preds = %104
  br label %113

109:                                              ; preds = %104
  br label %110

110:                                              ; preds = %109
  %111 = load i32, i32* %7, align 4
  %112 = add nsw i32 %111, 1
  store i32 %112, i32* %7, align 4
  br label %41

113:                                              ; preds = %108, %41
  %114 = load i32, i32* %14, align 4
  %115 = load i32, i32* %9, align 4
  %116 = icmp eq i32 %114, %115
  br i1 %116, label %117, label %121

117:                                              ; preds = %113
  %118 = load i32, i32* %11, align 4
  %119 = load i32, i32* %12, align 4
  %120 = call i32 (i8*, ...) @printf(i8* getelementptr inbounds ([6 x i8], [6 x i8]* @.str.2, i64 0, i64 0), i32 %118, i32 %119)
  br label %123

121:                                              ; preds = %113
  %122 = call i32 (i8*, ...) @printf(i8* getelementptr inbounds ([3 x i8], [3 x i8]* @.str.3, i64 0, i64 0))
  br label %123

123:                                              ; preds = %121, %117
  ret i32 0
}

declare dso_local i32 @__isoc99_scanf(i8*, ...) #1

declare dso_local i32 @printf(i8*, ...) #1


!llvm.module.flags = !{!0}
!llvm.ident = !{!1}

!0 = !{i32 1, !"wchar_size", i32 4}
!1 = !{!"clang version 10.0.0-4ubuntu1 "}
